; Function Attrs: mustprogress nofree norecurse nosync nounwind willreturn memory(argmem: write) uwtable
define dso_local void @_ZN3net26QuicClientPushPromiseIndexC2Ev(ptr noundef nonnull align 8 dereferenceable(64) %this) unnamed_addr #0 align 2 {
entry:
  store ptr getelementptr inbounds ({ [4 x ptr] }, ptr @_ZTVN3net26QuicClientPushPromiseIndexE, i64 0, i32 0, i64 2), ptr %this, align 8
  %promised_by_url_ = getelementptr inbounds i8, ptr %this, i64 8
  %_M_single_bucket.i.i = getelementptr inbounds i8, ptr %this, i64 56
  store ptr %_M_single_bucket.i.i, ptr %promised_by_url_, align 8
  %_M_bucket_count.i.i = getelementptr inbounds i8, ptr %this, i64 16
  store i64 1, ptr %_M_bucket_count.i.i, align 8
  %_M_before_begin.i.i = getelementptr inbounds i8, ptr %this, i64 24
  %_M_rehash_policy.i.i = getelementptr inbounds i8, ptr %this, i64 40
  tail call void @llvm.memset.p0.i64(ptr noundef nonnull align 8 dereferenceable(16) %_M_before_begin.i.i, i8 0, i64 16, i1 false)
  store float 1.000000e+00, ptr %_M_rehash_policy.i.i, align 8
  %_M_next_resize.i.i.i = getelementptr inbounds i8, ptr %this, i64 48
  tail call void @llvm.memset.p0.i64(ptr noundef nonnull align 8 dereferenceable(16) %_M_next_resize.i.i.i, i8 0, i64 16, i1 false)
  ret void
}